; ModuleID = '37/1504.c'
source_filename = "37/1504.c"
target datalayout = "e-m:e-p270:32:32-p271:32:32-p272:64:64-i64:64-f80:128-n8:16:32:64-S128"
target triple = "x86_64-pc-linux-gnu"

@.str = private unnamed_addr constant [3 x i8] c"%d\00", align 1
@.str.1 = private unnamed_addr constant [3 x i8] c"%s\00", align 1
@.str.2 = private unnamed_addr constant [4 x i8] c"%c\0A\00", align 1
@.str.3 = private unnamed_addr constant [4 x i8] c"no\0A\00", align 1

; Function Attrs: noinline nounwind uwtable
define dso_local i32 @main() #0 {
  %1 = alloca i32, align 4
  %2 = alloca i32, align 4
  %3 = alloca i32, align 4
  %4 = alloca [10002 x i8], align 16
  %5 = alloca i32, align 4
  %6 = alloca i32, align 4
  %7 = alloca i32, align 4
  %8 = alloca i32, align 4
  store i32 0, i32* %1, align 4
  %9 = call i32 (i8*, ...) @__isoc99_scanf(i8* getelementptr inbounds ([3 x i8], [3 x i8]* @.str, i64 0, i64 0), i32* %2)
  store i32 0, i32* %3, align 4
  br label %10

10:                                               ; preds = %73, %0
  %11 = load i32, i32* %3, align 4
  %12 = load i32, i32* %2, align 4
  %13 = icmp slt i32 %11, %12
  br i1 %13, label %14, label %76

14:                                               ; preds = %10
  %15 = getelementptr inbounds [10002 x i8], [10002 x i8]* %4, i64 0, i64 0
  %16 = call i32 (i8*, ...) @__isoc99_scanf(i8* getelementptr inbounds ([3 x i8], [3 x i8]* @.str.1, i64 0, i64 0), i8* %15)
  %17 = getelementptr inbounds [10002 x i8], [10002 x i8]* %4, i64 0, i64 0
  %18 = call i64 @strlen(i8* %17) #3
  %19 = trunc i64 %18 to i32
  store i32 %19, i32* %5, align 4
  store i32 0, i32* %6, align 4
  br label %20

20:                                               ; preds = %69, %14
  %21 = load i32, i32* %6, align 4
  %22 = load i32, i32* %5, align 4
  %23 = icmp slt i32 %21, %22
  br i1 %23, label %24, label %72

24:                                               ; preds = %20
  store i32 0, i32* %8, align 4
  store i32 0, i32* %7, align 4
  br label %25

25:                                               ; preds = %45, %24
  %26 = load i32, i32* %7, align 4
  %27 = load i32, i32* %5, align 4
  %28 = icmp slt i32 %26, %27
  br i1 %28, label %29, label %48

29:                                               ; preds = %25
  %30 = load i32, i32* %6, align 4
  %31 = sext i32 %30 to i64
  %32 = getelementptr inbounds [10002 x i8], [10002 x i8]* %4, i64 0, i64 %31
  %33 = load i8, i8* %32, align 1
  %34 = sext i8 %33 to i32
  %35 = load i32, i32* %7, align 4
  %36 = sext i32 %35 to i64
  %37 = getelementptr inbounds [10002 x i8], [10002 x i8]* %4, i64 0, i64 %36
  %38 = load i8, i8* %37, align 1
  %39 = sext i8 %38 to i32
  %40 = icmp eq i32 %34, %39
  br i1 %40, label %41, label %44

41:                                               ; preds = %29
  %42 = load i32, i32* %8, align 4
  %43 = add nsw i32 %42, 1
  store i32 %43, i32* %8, align 4
  br label %44

44:                                               ; preds = %41, %29
  br label %45

45:                                               ; preds = %44
  %46 = load i32, i32* %7, align 4
  %47 = add nsw i32 %46, 1
  store i32 %47, i32* %7, align 4
  br label %25

48:                                               ; preds = %25
  %49 = load i32, i32* %8, align 4
  %50 = icmp eq i32 %49, 1
  br i1 %50, label %51, label %58

51:                                               ; preds = %48
  %52 = load i32, i32* %6, align 4
  %53 = sext i32 %52 to i64
  %54 = getelementptr inbounds [10002 x i8], [10002 x i8]* %4, i64 0, i64 %53
  %55 = load i8, i8* %54, align 1
  %56 = sext i8 %55 to i32
  %57 = call i32 (i8*, ...) @printf(i8* getelementptr inbounds ([4 x i8], [4 x i8]* @.str.2, i64 0, i64 0), i32 %56)
  br label %72

58:                                               ; preds = %48
  %59 = load i32, i32* %6, align 4
  %60 = load i32, i32* %5, align 4
  %61 = sub nsw i32 %60, 1
  %62 = icmp eq i32 %59, %61
  br i1 %62, label %63, label %68

63:                                               ; preds = %58
  %64 = load i32, i32* %8, align 4
  %65 = icmp ne i32 %64, 1
  br i1 %65, label %66, label %68

66:                                               ; preds = %63
  %67 = call i32 (i8*, ...) @printf(i8* getelementptr inbounds ([4 x i8], [4 x i8]* @.str.3, i64 0, i64 0))
  br label %68

68:                                               ; preds = %66, %63, %58
  br label %69

69:                                               ; preds = %68
  %70 = load i32, i32* %6, align 4
  %71 = add nsw i32 %70, 1
  store i32 %71, i32* %6, align 4
  br label %20

72:                                               ; preds = %51, %20
  br label %73

73:                                               ; preds = %72
  %74 = load i32, i32* %3, align 4
  %75 = add nsw i32 %74, 1
  store i32 %75, i32* %3, align 4
  br label %10

76:                                               ; preds = %10
  ret i32 0
}

declare dso_local i32 @__isoc99_scanf(i8*, ...) #1

; Function Attrs: nounwind readonly
declare dso_local i64 @strlen(i8*) #2

declare dso_local i32 @printf(i8*, ...) #1


!llvm.module.flags = !{!0}
!llvm.ident = !{!1}

!0 = !{i32 1, !"wchar_size", i32 4}
!1 = !{!"clang version 10.0.0-4ubuntu1 "}
