; ModuleID = 'source-C-CXX/36/1504.c'
source_filename = "source-C-CXX/36/1504.c"
target datalayout = "e-m:e-p270:32:32-p271:32:32-p272:64:64-i64:64-f80:128-n8:16:32:64-S128"
target triple = "x86_64-pc-linux-gnu"

@.str = private unnamed_addr constant [3 x i8] c"%d\00", align 1
@.str.1 = private unnamed_addr constant [3 x i8] c"%s\00", align 1
@.str.2 = private unnamed_addr constant [4 x i8] c"%c\0A\00", align 1
@str = private unnamed_addr constant [3 x i8] c"no\00", align 1

; Function Attrs: nofree nounwind sspstrong uwtable
define dso_local i32 @main() local_unnamed_addr #0 {
  %1 = alloca i32, align 4
  %2 = alloca [10002 x i8], align 16
  %3 = bitcast i32* %1 to i8*
  call void @llvm.lifetime.start.p0i8(i64 4, i8* nonnull %3) #6
  %4 = call i32 (i8*, ...) @__isoc99_scanf(i8* getelementptr inbounds ([3 x i8], [3 x i8]* @.str, i64 0, i64 0), i32* nonnull %1)
  %5 = getelementptr inbounds [10002 x i8], [10002 x i8]* %2, i64 0, i64 0
  %6 = load i32, i32* %1, align 4, !tbaa !5
  %7 = icmp sgt i32 %6, 0
  br i1 %7, label %8, label %85

8:                                                ; preds = %0, %81
  %9 = phi i32 [ %82, %81 ], [ 0, %0 ]
  call void @llvm.lifetime.start.p0i8(i64 10002, i8* nonnull %5) #6
  %10 = call i32 (i8*, ...) @__isoc99_scanf(i8* getelementptr inbounds ([3 x i8], [3 x i8]* @.str.1, i64 0, i64 0), i8* nonnull %5)
  %11 = call i64 @strlen(i8* noundef nonnull %5) #7
  %12 = trunc i64 %11 to i32
  %13 = icmp sgt i32 %12, 0
  br i1 %13, label %14, label %81

14:                                               ; preds = %8
  %15 = add i64 %11, 4294967295
  %16 = and i64 %15, 4294967295
  %17 = and i64 %11, 4294967295
  %18 = icmp ult i64 %17, 8
  %19 = and i64 %11, 7
  %20 = sub nsw i64 %17, %19
  %21 = icmp eq i64 %19, 0
  br label %22

22:                                               ; preds = %14, %59
  %23 = phi i64 [ 0, %14 ], [ %60, %59 ]
  %24 = getelementptr inbounds [10002 x i8], [10002 x i8]* %2, i64 0, i64 %23
  %25 = load i8, i8* %24, align 1, !tbaa !9
  br i1 %18, label %52, label %26

26:                                               ; preds = %22
  %27 = insertelement <4 x i8> poison, i8 %25, i32 0
  %28 = shufflevector <4 x i8> %27, <4 x i8> poison, <4 x i32> zeroinitializer
  %29 = insertelement <4 x i8> poison, i8 %25, i32 0
  %30 = shufflevector <4 x i8> %29, <4 x i8> poison, <4 x i32> zeroinitializer
  br label %31

31:                                               ; preds = %31, %26
  %32 = phi i64 [ 0, %26 ], [ %47, %31 ]
  %33 = phi <4 x i32> [ zeroinitializer, %26 ], [ %45, %31 ]
  %34 = phi <4 x i32> [ zeroinitializer, %26 ], [ %46, %31 ]
  %35 = getelementptr inbounds [10002 x i8], [10002 x i8]* %2, i64 0, i64 %32
  %36 = bitcast i8* %35 to <4 x i8>*
  %37 = load <4 x i8>, <4 x i8>* %36, align 8, !tbaa !9
  %38 = getelementptr inbounds i8, i8* %35, i64 4
  %39 = bitcast i8* %38 to <4 x i8>*
  %40 = load <4 x i8>, <4 x i8>* %39, align 4, !tbaa !9
  %41 = icmp eq <4 x i8> %28, %37
  %42 = icmp eq <4 x i8> %30, %40
  %43 = zext <4 x i1> %41 to <4 x i32>
  %44 = zext <4 x i1> %42 to <4 x i32>
  %45 = add <4 x i32> %33, %43
  %46 = add <4 x i32> %34, %44
  %47 = add nuw i64 %32, 8
  %48 = icmp eq i64 %47, %20
  br i1 %48, label %49, label %31, !llvm.loop !10

49:                                               ; preds = %31
  %50 = add <4 x i32> %46, %45
  %51 = call i32 @llvm.vector.reduce.add.v4i32(<4 x i32> %50)
  br i1 %21, label %72, label %52

52:                                               ; preds = %22, %49
  %53 = phi i64 [ 0, %22 ], [ %20, %49 ]
  %54 = phi i32 [ 0, %22 ], [ %51, %49 ]
  br label %62

55:                                               ; preds = %72
  %56 = icmp eq i64 %23, %16
  br i1 %56, label %57, label %59

57:                                               ; preds = %55
  %58 = call i32 @puts(i8* nonnull dereferenceable(1) getelementptr inbounds ([3 x i8], [3 x i8]* @str, i64 0, i64 0))
  br label %59

59:                                               ; preds = %57, %55
  %60 = add nuw nsw i64 %23, 1
  %61 = icmp eq i64 %60, %17
  br i1 %61, label %81, label %22, !llvm.loop !13

62:                                               ; preds = %52, %62
  %63 = phi i64 [ %70, %62 ], [ %53, %52 ]
  %64 = phi i32 [ %69, %62 ], [ %54, %52 ]
  %65 = getelementptr inbounds [10002 x i8], [10002 x i8]* %2, i64 0, i64 %63
  %66 = load i8, i8* %65, align 1, !tbaa !9
  %67 = icmp eq i8 %25, %66
  %68 = zext i1 %67 to i32
  %69 = add nuw nsw i32 %64, %68
  %70 = add nuw nsw i64 %63, 1
  %71 = icmp eq i64 %70, %17
  br i1 %71, label %72, label %62, !llvm.loop !14

72:                                               ; preds = %62, %49
  %73 = phi i32 [ %51, %49 ], [ %69, %62 ]
  %74 = icmp eq i32 %73, 1
  br i1 %74, label %75, label %55

75:                                               ; preds = %72
  %76 = and i64 %23, 4294967295
  %77 = getelementptr inbounds [10002 x i8], [10002 x i8]* %2, i64 0, i64 %76
  %78 = load i8, i8* %77, align 1, !tbaa !9
  %79 = sext i8 %78 to i32
  %80 = call i32 (i8*, ...) @printf(i8* nonnull dereferenceable(1) getelementptr inbounds ([4 x i8], [4 x i8]* @.str.2, i64 0, i64 0), i32 %79)
  br label %81

81:                                               ; preds = %59, %8, %75
  call void @llvm.lifetime.end.p0i8(i64 10002, i8* nonnull %5) #6
  %82 = add nuw nsw i32 %9, 1
  %83 = load i32, i32* %1, align 4, !tbaa !5
  %84 = icmp slt i32 %82, %83
  br i1 %84, label %8, label %85, !llvm.loop !16

85:                                               ; preds = %81, %0
  call void @llvm.lifetime.end.p0i8(i64 4, i8* nonnull %3) #6
  ret i32 0
}

; Function Attrs: argmemonly mustprogress nofree nosync nounwind willreturn
declare void @llvm.lifetime.start.p0i8(i64 immarg, i8* nocapture) #1

; Function Attrs: nofree nounwind
declare noundef i32 @__isoc99_scanf(i8* nocapture noundef readonly, ...) local_unnamed_addr #2

; Function Attrs: argmemonly mustprogress nofree nounwind readonly willreturn
declare i64 @strlen(i8* nocapture) local_unnamed_addr #3

; Function Attrs: nofree nounwind
declare noundef i32 @printf(i8* nocapture noundef readonly, ...) local_unnamed_addr #2

; Function Attrs: argmemonly mustprogress nofree nosync nounwind willreturn
declare void @llvm.lifetime.end.p0i8(i64 immarg, i8* nocapture) #1

; Function Attrs: nofree nounwind
declare noundef i32 @puts(i8* nocapture noundef readonly) local_unnamed_addr #4

; Function Attrs: nofree nosync nounwind readnone willreturn
declare i32 @llvm.vector.reduce.add.v4i32(<4 x i32>) #5


!llvm.module.flags = !{!0, !1, !2, !3}
!llvm.ident = !{!4}

!0 = !{i32 1, !"wchar_size", i32 4}
!1 = !{i32 7, !"PIC Level", i32 2}
!2 = !{i32 7, !"PIE Level", i32 2}
!3 = !{i32 7, !"uwtable", i32 1}
!4 = !{!"clang version 13.0.0"}
!5 = !{!6, !6, i64 0}
!6 = !{!"int", !7, i64 0}
!7 = !{!"omnipotent char", !8, i64 0}
!8 = !{!"Simple C/C++ TBAA"}
!9 = !{!7, !7, i64 0}
!10 = distinct !{!10, !11, !12}
!11 = !{!"llvm.loop.mustprogress"}
!12 = !{!"llvm.loop.isvectorized", i32 1}
!13 = distinct !{!13, !11}
!14 = distinct !{!14, !11, !15, !12}
!15 = !{!"llvm.loop.unroll.runtime.disable"}
!16 = distinct !{!16, !11}
